(lp0
I0
aI220
aI440
aI660
aI880
aI1100
aI1320
aI1540
aI1760
aI1980
aI2200
aI2420
aI2640
aI2860
aI4008
aI4228
aI4448
aI4668
aI5040
aI5040
aI5040
aI5225
aI5225
aI5384
aI5384
aI5564
aI5564
aI7419
aI7419
a.(lp0
I0
aF0.1
aF0.2
aF0.3
aF0.4
aF0.5
aF0.6
aF0.7
aF0.8
aF0.9
aI1
aI2
aI3
aI4
aI4
aF3.9
aF3.8
aF3.7
aF3.7
aF3.7
aF3.6
aF3.6
aF3.5
aF3.5
aF3.4
aF3.4
aF3.3
aF3.3
aF3.29
a.